; Function Attrs: nounwind sspstrong uwtable
define internal noundef i32 @read_time(ptr readnone captures(none) %env, i32 %csrno, ptr noundef writeonly captures(none) initializes((0, 8)) %val) #2 {
entry:
  %0 = tail call { i32, i32 } asm sideeffect "rdtsc", "={ax},={dx},~{dirflag},~{fpsr},~{flags}"() #11, !srcloc !5
  %asmresult.i = extractvalue { i32, i32 } %0, 0
  %asmresult1.i = extractvalue { i32, i32 } %0, 1
  %conv.i = zext i32 %asmresult1.i to i64
  %shl.i = shl nuw i64 %conv.i, 32
  %conv2.i = zext i32 %asmresult.i to i64
  %or.i = or disjoint i64 %shl.i, %conv2.i
  store i64 %or.i, ptr %val, align 8
  ret i32 -1
}